target datalayout = "e-m:e-p270:32:32-p271:32:32-p272:64:64-i64:64-i128:128-f80:128-n8:16:32:64-S128"
target triple = "x86_64-pc-linux-gnu"

%struct._GtkDarktableGradientSlider = type { %struct._GtkDrawingArea, ptr, i32, i32, i32, [10 x double], [10 x double], [10 x i32], double, double, [3 x double], i32, i32, i32, i32, i32, i32, i32, i32, i32, ptr }
%struct._GtkDrawingArea = type { %struct._GtkWidget, ptr }
%struct._GtkWidget = type { %struct._GObject, ptr }
%struct._GObject = type { %struct._GTypeInstance, i32, ptr }
%struct._GTypeInstance = type { ptr }

; Function Attrs: nounwind uwtable
define double @dtgtk_gradient_slider_multivalue_get_value(ptr noundef %0, i32 noundef %1) #0 {
  %3 = alloca ptr, align 8
  %4 = alloca i32, align 4
  store ptr %0, ptr %3, align 8, !tbaa !24
  store i32 %1, ptr %4, align 4, !tbaa !13
  %5 = load ptr, ptr %3, align 8, !tbaa !24
  %6 = getelementptr inbounds nuw %struct._GtkDarktableGradientSlider, ptr %5, i32 0, i32 20
  %7 = load ptr, ptr %6, align 8, !tbaa !43
  %8 = load ptr, ptr %3, align 8, !tbaa !24
  %9 = load ptr, ptr %3, align 8, !tbaa !24
  %10 = getelementptr inbounds nuw %struct._GtkDarktableGradientSlider, ptr %9, i32 0, i32 5
  %11 = load i32, ptr %4, align 4, !tbaa !13
  %12 = sext i32 %11 to i64
  %13 = getelementptr inbounds [10 x double], ptr %10, i64 0, i64 %12
  %14 = load double, ptr %13, align 8, !tbaa !45
  %15 = fptrunc reassoc nsz arcp contract afn double %14 to float
  %16 = call reassoc nsz arcp contract afn float %7(ptr noundef %8, float noundef %15, i32 noundef 2)
  %17 = fpext reassoc nsz arcp contract afn float %16 to double
  ret double %17
}

; Function Attrs: nounwind uwtable
define double @dtgtk_gradient_slider_get_value(ptr noundef %0) #0 {
  %2 = alloca ptr, align 8
  store ptr %0, ptr %2, align 8, !tbaa !24
  %3 = load ptr, ptr %2, align 8, !tbaa !24
  %4 = call reassoc nsz arcp contract afn double @dtgtk_gradient_slider_multivalue_get_value(ptr noundef %3, i32 noundef 0)
  ret double %4
}