; Function Attrs: nounwind uwtable
define double @dtgtk_gradient_slider_get_value(ptr noundef %0) local_unnamed_addr #0 {
  %2 = getelementptr inbounds nuw i8, ptr %0, i64 344
  %3 = load ptr, ptr %2, align 8, !tbaa !34
  %4 = getelementptr inbounds nuw i8, ptr %0, i64 64
  %5 = load double, ptr %4, align 8, !tbaa !37
  %6 = fptrunc reassoc nsz arcp contract afn double %5 to float
  %7 = tail call reassoc nsz arcp contract afn float %3(ptr noundef %0, float noundef %6, i32 noundef 2) #14
  %8 = fpext reassoc nsz arcp contract afn float %7 to double
  ret double %8
}